target datalayout = "e-m:e-p270:32:32-p271:32:32-p272:64:64-i64:64-i128:128-f80:128-n8:16:32:64-S128"
target triple = "x86_64-pc-linux-gnu"

%struct.SoftFloat = type { i32, i32 }

@.str = private unnamed_addr constant [42 x i8] c"Overflow in sbr_hf_apply_noise, shift=%d\0A\00", align 1

; Function Attrs: alwaysinline nounwind uwtable
define internal i32 @sbr_hf_apply_noise(ptr noundef %0, ptr noundef %1, ptr noundef %2, i32 noundef %3, i32 noundef %4, i32 noundef %5, i32 noundef %6) #6 {
  %8 = alloca i32, align 4
  %9 = alloca ptr, align 8
  %10 = alloca ptr, align 8
  %11 = alloca ptr, align 8
  %12 = alloca i32, align 4
  %13 = alloca i32, align 4
  %14 = alloca i32, align 4
  %15 = alloca i32, align 4
  %16 = alloca i32, align 4
  %17 = alloca i32, align 4
  %18 = alloca i32, align 4
  %19 = alloca i32, align 4
  %20 = alloca i32, align 4
  %21 = alloca i32, align 4
  %22 = alloca i32, align 4
  %23 = alloca i32, align 4
  %24 = alloca i32, align 4
  %25 = alloca i64, align 8
  store ptr %0, ptr %9, align 8, !tbaa !21
  store ptr %1, ptr %10, align 8, !tbaa !38
  store ptr %2, ptr %11, align 8, !tbaa !38
  store i32 %3, ptr %12, align 4, !tbaa !23
  store i32 %4, ptr %13, align 4, !tbaa !23
  store i32 %5, ptr %14, align 4, !tbaa !23
  store i32 %6, ptr %15, align 4, !tbaa !23
  call void @llvm.lifetime.start.p0(i64 4, ptr %16) #8
  store i32 0, ptr %16, align 4, !tbaa !23
  br label %26

26:                                               ; preds = %197, %7
  %27 = load i32, ptr %16, align 4, !tbaa !23
  %28 = load i32, ptr %15, align 4, !tbaa !23
  %29 = icmp slt i32 %27, %28
  br i1 %29, label %30, label %200

30:                                               ; preds = %26
  call void @llvm.lifetime.start.p0(i64 4, ptr %17) #8
  %31 = load ptr, ptr %9, align 8, !tbaa !21
  %32 = load i32, ptr %16, align 4, !tbaa !23
  %33 = sext i32 %32 to i64
  %34 = getelementptr inbounds [2 x i32], ptr %31, i64 %33
  %35 = getelementptr inbounds [2 x i32], ptr %34, i64 0, i64 0
  %36 = load i32, ptr %35, align 4, !tbaa !23
  store i32 %36, ptr %17, align 4, !tbaa !23
  call void @llvm.lifetime.start.p0(i64 4, ptr %18) #8
  %37 = load ptr, ptr %9, align 8, !tbaa !21
  %38 = load i32, ptr %16, align 4, !tbaa !23
  %39 = sext i32 %38 to i64
  %40 = getelementptr inbounds [2 x i32], ptr %37, i64 %39
  %41 = getelementptr inbounds [2 x i32], ptr %40, i64 0, i64 1
  %42 = load i32, ptr %41, align 4, !tbaa !23
  store i32 %42, ptr %18, align 4, !tbaa !23
  %43 = load i32, ptr %12, align 4, !tbaa !23
  %44 = add nsw i32 %43, 1
  %45 = and i32 %44, 511
  store i32 %45, ptr %12, align 4, !tbaa !23
  %46 = load ptr, ptr %10, align 8, !tbaa !38
  %47 = load i32, ptr %16, align 4, !tbaa !23
  %48 = sext i32 %47 to i64
  %49 = getelementptr inbounds %struct.SoftFloat, ptr %46, i64 %48
  %50 = getelementptr inbounds nuw %struct.SoftFloat, ptr %49, i32 0, i32 0
  %51 = load i32, ptr %50, align 4, !tbaa !43
  %52 = icmp ne i32 %51, 0
  br i1 %52, label %53, label %105

53:                                               ; preds = %30
  call void @llvm.lifetime.start.p0(i64 4, ptr %19) #8
  call void @llvm.lifetime.start.p0(i64 4, ptr %20) #8
  %54 = load ptr, ptr %10, align 8, !tbaa !38
  %55 = load i32, ptr %16, align 4, !tbaa !23
  %56 = sext i32 %55 to i64
  %57 = getelementptr inbounds %struct.SoftFloat, ptr %54, i64 %56
  %58 = getelementptr inbounds nuw %struct.SoftFloat, ptr %57, i32 0, i32 1
  %59 = load i32, ptr %58, align 4, !tbaa !41
  %60 = sub nsw i32 22, %59
  store i32 %60, ptr %19, align 4, !tbaa !23
  %61 = load i32, ptr %19, align 4, !tbaa !23
  %62 = icmp slt i32 %61, 1
  br i1 %62, label %63, label %65

63:                                               ; preds = %53
  %64 = load i32, ptr %19, align 4, !tbaa !23
  call void (ptr, i32, ptr, ...) @av_log(ptr noundef null, i32 noundef 16, ptr noundef @.str, i32 noundef %64)
  store i32 -34, ptr %8, align 4
  store i32 1, ptr %21, align 4
  br label %102

65:                                               ; preds = %53
  %66 = load i32, ptr %19, align 4, !tbaa !23
  %67 = icmp slt i32 %66, 30
  br i1 %67, label %68, label %100

68:                                               ; preds = %65
  %69 = load i32, ptr %19, align 4, !tbaa !23
  %70 = sub nsw i32 %69, 1
  %71 = shl i32 1, %70
  store i32 %71, ptr %20, align 4, !tbaa !23
  %72 = load ptr, ptr %10, align 8, !tbaa !38
  %73 = load i32, ptr %16, align 4, !tbaa !23
  %74 = sext i32 %73 to i64
  %75 = getelementptr inbounds %struct.SoftFloat, ptr %72, i64 %74
  %76 = getelementptr inbounds nuw %struct.SoftFloat, ptr %75, i32 0, i32 0
  %77 = load i32, ptr %76, align 4, !tbaa !43
  %78 = load i32, ptr %13, align 4, !tbaa !23
  %79 = mul nsw i32 %77, %78
  %80 = load i32, ptr %20, align 4, !tbaa !23
  %81 = add nsw i32 %79, %80
  %82 = load i32, ptr %19, align 4, !tbaa !23
  %83 = ashr i32 %81, %82
  %84 = load i32, ptr %17, align 4, !tbaa !23
  %85 = add i32 %84, %83
  store i32 %85, ptr %17, align 4, !tbaa !23
  %86 = load ptr, ptr %10, align 8, !tbaa !38
  %87 = load i32, ptr %16, align 4, !tbaa !23
  %88 = sext i32 %87 to i64
  %89 = getelementptr inbounds %struct.SoftFloat, ptr %86, i64 %88
  %90 = getelementptr inbounds nuw %struct.SoftFloat, ptr %89, i32 0, i32 0
  %91 = load i32, ptr %90, align 4, !tbaa !43
  %92 = load i32, ptr %14, align 4, !tbaa !23
  %93 = mul nsw i32 %91, %92
  %94 = load i32, ptr %20, align 4, !tbaa !23
  %95 = add nsw i32 %93, %94
  %96 = load i32, ptr %19, align 4, !tbaa !23
  %97 = ashr i32 %95, %96
  %98 = load i32, ptr %18, align 4, !tbaa !23
  %99 = add i32 %98, %97
  store i32 %99, ptr %18, align 4, !tbaa !23
  br label %100

100:                                              ; preds = %68, %65
  br label %101

101:                                              ; preds = %100
  store i32 0, ptr %21, align 4
  br label %102

102:                                              ; preds = %101, %63
  call void @llvm.lifetime.end.p0(i64 4, ptr %20) #8
  call void @llvm.lifetime.end.p0(i64 4, ptr %19) #8
  %103 = load i32, ptr %21, align 4
  switch i32 %103, label %194 [
    i32 0, label %104
  ]

104:                                              ; preds = %102
  br label %179

105:                                              ; preds = %30
  call void @llvm.lifetime.start.p0(i64 4, ptr %22) #8
  call void @llvm.lifetime.start.p0(i64 4, ptr %23) #8
  call void @llvm.lifetime.start.p0(i64 4, ptr %24) #8
  call void @llvm.lifetime.start.p0(i64 8, ptr %25) #8
  %106 = load ptr, ptr %11, align 8, !tbaa !38
  %107 = load i32, ptr %16, align 4, !tbaa !23
  %108 = sext i32 %107 to i64
  %109 = getelementptr inbounds %struct.SoftFloat, ptr %106, i64 %108
  %110 = getelementptr inbounds nuw %struct.SoftFloat, ptr %109, i32 0, i32 1
  %111 = load i32, ptr %110, align 4, !tbaa !41
  %112 = sub nsw i32 22, %111
  store i32 %112, ptr %22, align 4, !tbaa !23
  %113 = load i32, ptr %22, align 4, !tbaa !23
  %114 = icmp slt i32 %113, 1
  br i1 %114, label %115, label %117

115:                                              ; preds = %105
  %116 = load i32, ptr %22, align 4, !tbaa !23
  call void (ptr, i32, ptr, ...) @av_log(ptr noundef null, i32 noundef 16, ptr noundef @.str, i32 noundef %116)
  store i32 -34, ptr %8, align 4
  store i32 1, ptr %21, align 4
  br label %176

117:                                              ; preds = %105
  %118 = load i32, ptr %22, align 4, !tbaa !23
  %119 = icmp slt i32 %118, 30
  br i1 %119, label %120, label %174

120:                                              ; preds = %117
  %121 = load i32, ptr %22, align 4, !tbaa !23
  %122 = sub nsw i32 %121, 1
  %123 = shl i32 1, %122
  store i32 %123, ptr %23, align 4, !tbaa !23
  %124 = load ptr, ptr %11, align 8, !tbaa !38
  %125 = load i32, ptr %16, align 4, !tbaa !23
  %126 = sext i32 %125 to i64
  %127 = getelementptr inbounds %struct.SoftFloat, ptr %124, i64 %126
  %128 = getelementptr inbounds nuw %struct.SoftFloat, ptr %127, i32 0, i32 0
  %129 = load i32, ptr %128, align 4, !tbaa !43
  %130 = sext i32 %129 to i64
  %131 = load i32, ptr %12, align 4, !tbaa !23
  %132 = sext i32 %131 to i64
  %133 = getelementptr inbounds [0 x [2 x i32]], ptr @ff_sbr_noise_table_fixed, i64 0, i64 %132
  %134 = getelementptr inbounds [2 x i32], ptr %133, i64 0, i64 0
  %135 = load i32, ptr %134, align 4, !tbaa !23
  %136 = sext i32 %135 to i64
  %137 = mul nsw i64 %130, %136
  store i64 %137, ptr %25, align 8, !tbaa !27
  %138 = load i64, ptr %25, align 8, !tbaa !27
  %139 = add nsw i64 %138, 1073741824
  %140 = ashr i64 %139, 31
  %141 = trunc i64 %140 to i32
  store i32 %141, ptr %24, align 4, !tbaa !23
  %142 = load i32, ptr %24, align 4, !tbaa !23
  %143 = load i32, ptr %23, align 4, !tbaa !23
  %144 = add nsw i32 %142, %143
  %145 = load i32, ptr %22, align 4, !tbaa !23
  %146 = ashr i32 %144, %145
  %147 = load i32, ptr %17, align 4, !tbaa !23
  %148 = add i32 %147, %146
  store i32 %148, ptr %17, align 4, !tbaa !23
  %149 = load ptr, ptr %11, align 8, !tbaa !38
  %150 = load i32, ptr %16, align 4, !tbaa !23
  %151 = sext i32 %150 to i64
  %152 = getelementptr inbounds %struct.SoftFloat, ptr %149, i64 %151
  %153 = getelementptr inbounds nuw %struct.SoftFloat, ptr %152, i32 0, i32 0
  %154 = load i32, ptr %153, align 4, !tbaa !43
  %155 = sext i32 %154 to i64
  %156 = load i32, ptr %12, align 4, !tbaa !23
  %157 = sext i32 %156 to i64
  %158 = getelementptr inbounds [0 x [2 x i32]], ptr @ff_sbr_noise_table_fixed, i64 0, i64 %157
  %159 = getelementptr inbounds [2 x i32], ptr %158, i64 0, i64 1
  %160 = load i32, ptr %159, align 4, !tbaa !23
  %161 = sext i32 %160 to i64
  %162 = mul nsw i64 %155, %161
  store i64 %162, ptr %25, align 8, !tbaa !27
  %163 = load i64, ptr %25, align 8, !tbaa !27
  %164 = add nsw i64 %163, 1073741824
  %165 = ashr i64 %164, 31
  %166 = trunc i64 %165 to i32
  store i32 %166, ptr %24, align 4, !tbaa !23
  %167 = load i32, ptr %24, align 4, !tbaa !23
  %168 = load i32, ptr %23, align 4, !tbaa !23
  %169 = add nsw i32 %167, %168
  %170 = load i32, ptr %22, align 4, !tbaa !23
  %171 = ashr i32 %169, %170
  %172 = load i32, ptr %18, align 4, !tbaa !23
  %173 = add i32 %172, %171
  store i32 %173, ptr %18, align 4, !tbaa !23
  br label %174

174:                                              ; preds = %120, %117
  br label %175

175:                                              ; preds = %174
  store i32 0, ptr %21, align 4
  br label %176

176:                                              ; preds = %175, %115
  call void @llvm.lifetime.end.p0(i64 8, ptr %25) #8
  call void @llvm.lifetime.end.p0(i64 4, ptr %24) #8
  call void @llvm.lifetime.end.p0(i64 4, ptr %23) #8
  call void @llvm.lifetime.end.p0(i64 4, ptr %22) #8
  %177 = load i32, ptr %21, align 4
  switch i32 %177, label %194 [
    i32 0, label %178
  ]

178:                                              ; preds = %176
  br label %179

179:                                              ; preds = %178, %104
  %180 = load i32, ptr %17, align 4, !tbaa !23
  %181 = load ptr, ptr %9, align 8, !tbaa !21
  %182 = load i32, ptr %16, align 4, !tbaa !23
  %183 = sext i32 %182 to i64
  %184 = getelementptr inbounds [2 x i32], ptr %181, i64 %183
  %185 = getelementptr inbounds [2 x i32], ptr %184, i64 0, i64 0
  store i32 %180, ptr %185, align 4, !tbaa !23
  %186 = load i32, ptr %18, align 4, !tbaa !23
  %187 = load ptr, ptr %9, align 8, !tbaa !21
  %188 = load i32, ptr %16, align 4, !tbaa !23
  %189 = sext i32 %188 to i64
  %190 = getelementptr inbounds [2 x i32], ptr %187, i64 %189
  %191 = getelementptr inbounds [2 x i32], ptr %190, i64 0, i64 1
  store i32 %186, ptr %191, align 4, !tbaa !23
  %192 = load i32, ptr %14, align 4, !tbaa !23
  %193 = sub nsw i32 0, %192
  store i32 %193, ptr %14, align 4, !tbaa !23
  store i32 0, ptr %21, align 4
  br label %194

194:                                              ; preds = %179, %176, %102
  call void @llvm.lifetime.end.p0(i64 4, ptr %18) #8
  call void @llvm.lifetime.end.p0(i64 4, ptr %17) #8
  %195 = load i32, ptr %21, align 4
  switch i32 %195, label %201 [
    i32 0, label %196
  ]

196:                                              ; preds = %194
  br label %197

197:                                              ; preds = %196
  %198 = load i32, ptr %16, align 4, !tbaa !23
  %199 = add nsw i32 %198, 1
  store i32 %199, ptr %16, align 4, !tbaa !23
  br label %26, !llvm.loop !49

200:                                              ; preds = %26
  store i32 0, ptr %8, align 4
  store i32 1, ptr %21, align 4
  br label %201

201:                                              ; preds = %200, %194
  call void @llvm.lifetime.end.p0(i64 4, ptr %16) #8
  %202 = load i32, ptr %8, align 4
  ret i32 %202
}

; Function Attrs: nounwind uwtable
define internal void @sbr_hf_apply_noise_3(ptr noundef %0, ptr noundef %1, ptr noundef %2, i32 noundef %3, i32 noundef %4, i32 noundef %5) #1 {
  %7 = alloca ptr, align 8
  %8 = alloca ptr, align 8
  %9 = alloca ptr, align 8
  %10 = alloca i32, align 4
  %11 = alloca i32, align 4
  %12 = alloca i32, align 4
  %13 = alloca i32, align 4
  store ptr %0, ptr %7, align 8, !tbaa !21
  store ptr %1, ptr %8, align 8, !tbaa !38
  store ptr %2, ptr %9, align 8, !tbaa !38
  store i32 %3, ptr %10, align 4, !tbaa !23
  store i32 %4, ptr %11, align 4, !tbaa !23
  store i32 %5, ptr %12, align 4, !tbaa !23
  call void @llvm.lifetime.start.p0(i64 4, ptr %13) #8
  %14 = load i32, ptr %11, align 4, !tbaa !23
  %15 = and i32 %14, 1
  %16 = mul nsw i32 2, %15
  %17 = sub nsw i32 1, %16
  store i32 %17, ptr %13, align 4, !tbaa !23
  %18 = load ptr, ptr %7, align 8, !tbaa !21
  %19 = load ptr, ptr %8, align 8, !tbaa !38
  %20 = load ptr, ptr %9, align 8, !tbaa !38
  %21 = load i32, ptr %10, align 4, !tbaa !23
  %22 = load i32, ptr %13, align 4, !tbaa !23
  %23 = sub nsw i32 0, %22
  %24 = load i32, ptr %12, align 4, !tbaa !23
  %25 = call i32 @sbr_hf_apply_noise(ptr noundef %18, ptr noundef %19, ptr noundef %20, i32 noundef %21, i32 noundef 0, i32 noundef %23, i32 noundef %24)
  call void @llvm.lifetime.end.p0(i64 4, ptr %13) #8
  ret void
}