; Function Attrs: nounwind uwtable
define internal void @sbr_hf_apply_noise_3(ptr noundef captures(none) %0, ptr noundef readonly captures(none) %1, ptr noundef readonly captures(none) %2, i32 noundef %3, i32 noundef %4, i32 noundef %5) #3 {
  %7 = icmp sgt i32 %5, 0
  br i1 %7, label %.lr.ph.preheader, label %sbr_hf_apply_noise.exit

.lr.ph.preheader:                                 ; preds = %6
  %8 = shl i32 %4, 1
  %9 = and i32 %8, 2
  %.neg = add nsw i32 %9, -1
  %wide.trip.count = zext nneg i32 %5 to i64
  br label %.lr.ph

.lr.ph:                                           ; preds = %.lr.ph.preheader, %.thread
  %indvars.iv = phi i64 [ 0, %.lr.ph.preheader ], [ %indvars.iv.next, %.thread ]
  %.062.i19 = phi i32 [ %3, %.lr.ph.preheader ], [ %15, %.thread ]
  %.063.i18 = phi i32 [ %.neg, %.lr.ph.preheader ], [ %68, %.thread ]
  %10 = getelementptr inbounds nuw [2 x i32], ptr %0, i64 %indvars.iv
  %11 = load i32, ptr %10, align 4, !tbaa !19
  %12 = getelementptr inbounds nuw i8, ptr %10, i64 4
  %13 = load i32, ptr %12, align 4, !tbaa !19
  %14 = add nsw i32 %.062.i19, 1
  %15 = and i32 %14, 511
  %16 = getelementptr inbounds nuw %struct.SoftFloat, ptr %1, i64 %indvars.iv
  %17 = load i32, ptr %16, align 4, !tbaa !38
  %.not.i = icmp eq i32 %17, 0
  br i1 %.not.i, label %34, label %18

18:                                               ; preds = %.lr.ph
  %19 = getelementptr inbounds nuw i8, ptr %16, i64 4
  %20 = load i32, ptr %19, align 4, !tbaa !36
  %21 = sub nsw i32 22, %20
  %22 = icmp slt i32 %20, 22
  br i1 %22, label %23, label %sbr_hf_apply_noise.exit.sink.split

23:                                               ; preds = %18
  %24 = icmp sgt i32 %20, -8
  br i1 %24, label %25, label %.thread

25:                                               ; preds = %23
  %26 = sub nsw i32 21, %20
  %27 = shl nuw nsw i32 1, %26
  %28 = lshr i32 %27, %21
  %29 = add i32 %28, %11
  %30 = mul nsw i32 %17, %.063.i18
  %31 = add nsw i32 %27, %30
  %32 = ashr i32 %31, %21
  %33 = add i32 %32, %13
  br label %.thread

34:                                               ; preds = %.lr.ph
  %35 = getelementptr inbounds nuw %struct.SoftFloat, ptr %2, i64 %indvars.iv
  %36 = getelementptr inbounds nuw i8, ptr %35, i64 4
  %37 = load i32, ptr %36, align 4, !tbaa !36
  %38 = sub nsw i32 22, %37
  %39 = icmp slt i32 %37, 22
  br i1 %39, label %40, label %sbr_hf_apply_noise.exit.sink.split

40:                                               ; preds = %34
  %41 = icmp sgt i32 %37, -8
  br i1 %41, label %42, label %.thread

42:                                               ; preds = %40
  %43 = sub nsw i32 21, %37
  %44 = shl nuw nsw i32 1, %43
  %45 = load i32, ptr %35, align 4, !tbaa !38
  %46 = sext i32 %45 to i64
  %47 = zext nneg i32 %15 to i64
  %48 = getelementptr inbounds nuw [0 x [2 x i32]], ptr @ff_sbr_noise_table_fixed, i64 0, i64 %47
  %49 = load i32, ptr %48, align 8, !tbaa !19
  %50 = sext i32 %49 to i64
  %51 = mul nsw i64 %50, %46
  %52 = add nsw i64 %51, 1073741824
  %53 = lshr i64 %52, 31
  %54 = trunc i64 %53 to i32
  %55 = add nsw i32 %44, %54
  %56 = ashr i32 %55, %38
  %57 = add i32 %56, %11
  %58 = getelementptr inbounds nuw i8, ptr %48, i64 4
  %59 = load i32, ptr %58, align 4, !tbaa !19
  %60 = sext i32 %59 to i64
  %61 = mul nsw i64 %60, %46
  %62 = add nsw i64 %61, 1073741824
  %63 = lshr i64 %62, 31
  %64 = trunc i64 %63 to i32
  %65 = add nsw i32 %44, %64
  %66 = ashr i32 %65, %38
  %67 = add i32 %66, %13
  br label %.thread

.thread:                                          ; preds = %40, %42, %23, %25
  %.276.i = phi i32 [ %13, %23 ], [ %33, %25 ], [ %13, %40 ], [ %67, %42 ]
  %.271.i = phi i32 [ %11, %23 ], [ %29, %25 ], [ %11, %40 ], [ %57, %42 ]
  store i32 %.271.i, ptr %10, align 4, !tbaa !19
  store i32 %.276.i, ptr %12, align 4, !tbaa !19
  %68 = sub nsw i32 0, %.063.i18
  %indvars.iv.next = add nuw nsw i64 %indvars.iv, 1
  %exitcond.not = icmp eq i64 %indvars.iv.next, %wide.trip.count
  br i1 %exitcond.not, label %sbr_hf_apply_noise.exit, label %.lr.ph, !llvm.loop !40

sbr_hf_apply_noise.exit.sink.split:               ; preds = %34, %18
  %.lcssa22.sink = phi i32 [ %21, %18 ], [ %38, %34 ]
  tail call void (ptr, i32, ptr, ...) @av_log(ptr noundef null, i32 noundef 16, ptr noundef nonnull @.str, i32 noundef %.lcssa22.sink) #6
  br label %sbr_hf_apply_noise.exit

sbr_hf_apply_noise.exit:                          ; preds = %.thread, %sbr_hf_apply_noise.exit.sink.split, %6
  ret void
}